(lp0
(lp1
I-100
aI-100
aF48.400336
aF56.6128
aa(lp2
I-100
aF46.552096000000006
aI-100
aF55.26650368
aa(lp3
I100
aI100
aI100
aI100
aa(lp4
I100
aI100
aI100
aI100
aa(lp5
I-100
aI-100
aF27.281426629976508
aI-100
aa(lp6
I-100
aF24.2399584669889
aF23.519333506637867
aF115.50889479514804
aa(lp7
I-100
aF22.271243963325865
aF18.98651267090978
aF32.459596409425075
aa(lp8
I-100
aF18.195236037727565
aF14.32186110822352
aI-100
aa(lp9
I-100
aF20.395989224740415
aF16.28642947558476
aF16.512965282851074
aa(lp10
I-100
aF16.897014358676454
aI-100
aI-100
aa(lp11
F47.355616000000005
aI-100
aF52.6824350848
aF56.6128
aa(lp12
F55.67968
aF54.38368000000001
aI-100
aF64.03615984
aa(lp13
I100
aI100
aI100
aI100
aa(lp14
I100
aI100
aI100
aI100
aa(lp15
I100
aI100
aI100
aI100
aa(lp16
F27.955298853634005
aI-100
aF31.991573052928004
aF182.75562169638567
aa(lp17
F24.00674477581399
aF26.937456838748265
aI-100
aI-100
aa(lp18
I100
aI100
aI100
aI100
aa(lp19
F19.08720716144542
aI-100
aI-100
aI-100
aa(lp20
I100
aI100
aI100
aI100
aa(lp21
F55.13680000000001
aI-100
aF54.86321440000001
aF51.18105664
aa(lp22
F54.1060550848
aF51.887284048
aF54.1371808
aF60.17680000000001
aa(lp23
I-100
aF64.16358399999999
aF45.53802141760001
aF64.1908
aa(lp24
I-100
aF54.13611808
aI-100
aF45.5163328
aa(lp25
I100
aI100
aI100
aI100
aa(lp26
F40.10977229248
aI-100
aI-100
aF272.44672217480553
aa(lp27
I100
aI100
aI100
aI100
aa(lp28
I100
aI100
aI100
aI100
aa(lp29
I100
aI100
aI100
aI100
aa(lp30
I100
aI100
aI100
aI100
aa(lp31
F52.071303879999995
aI-100
aF59.39200000000001
aI-100
aa(lp32
F64.33840000000001
aF49.486240000001665
aF47.7108640045911
aF74.24000000000001
aa(lp33
F52.62889888000001
aF59.39200000000001
aF57.7108
aI-100
aa(lp34
F48.418336000000004
aF47.71286253568001
aF353.5445694356794
aF51.45764176000001
aa(lp35
I-100
aF45.507937600000005
aF197.28161539618628
aF442.3457116051868
aa(lp36
F46.8508096
aF353.7821430976034
aI-100
aI-100
aa(lp37
I100
aI100
aI100
aI100
aa(lp38
I100
aI100
aI100
aI100
aa(lp39
I100
aI100
aI100
aI100
aa(lp40
I100
aI100
aI100
aI100
aa(lp41
I100
aI100
aI100
aI100
aa(lp42
F69.04
aI-100
aI-100
aF92.8
aa(lp43
I100
aI100
aI100
aI100
aa(lp44
F55.13680000000001
aI-100
aF442.1250097970461
aI-100
aa(lp45
F323.9789055894489
aF268.8311125722188
aI-100
aF552.932416
aa(lp46
I100
aI100
aI100
aI100
aa(lp47
I100
aI100
aI100
aI100
aa(lp48
I100
aI100
aI100
aI100
aa(lp49
I100
aI100
aI100
aI100
aa(lp50
I100
aI100
aI100
aI100
aa(lp51
I100
aI100
aI100
aI100
aa(lp52
I100
aI100
aI100
aI100
aa(lp53
I100
aI100
aI100
aI100
aa(lp54
I100
aI100
aI100
aI100
aa(lp55
F442.30734197217396
aI-100
aF691.16552
aF80.2
aa(lp56
I-100
aF505.6417656064
aF863.9949844
aI-100
aa(lp57
I-100
aI100
aF1079.999902
aI100
aa(lp58
I100
aI100
aI100
aI100
aa(lp59
I100
aI100
aI100
aI100
aa(lp60
I100
aI100
aI100
aI100
aa(lp61
I100
aI100
aI100
aI100
aa(lp62
I100
aI100
aI100
aI100
aa(lp63
I-100
aI100
aF329.89271145943843
aI100
aa(lp64
I-100
aF82.0
aF442.2972232303964
aI-100
aa(lp65
F552.932416
aF350.7523989864237
aI-100
aI100
aa(lp66
I100
aI100
aI100
aI100
aa(lp67
I100
aI100
aI100
aI100
aa(lp68
I100
aI100
aI100
aI100
aa(lp69
I100
aI100
aI100
aI100
aa(lp70
I100
aI100
aI100
aI100
aa(lp71
I100
aI100
aI100
aI100
aa(lp72
I100
aI100
aI100
aI100
aa(lp73
I100
aI100
aI100
aI100
aa(lp74
I100
aI100
aI100
aI100
aa(lp75
F80.2
aI-100
aF82.0
aF68.356
aa(lp76
I-100
aF72.40960000000001
aF80.2
aF82.0
aa(lp77
I100
aF82.0
aI-100
aF69.04
aa(lp78
I100
aI100
aI100
aI100
aa(lp79
I100
aI100
aI100
aI100
aa(lp80
I100
aI100
aI100
aI100
aa(lp81
I100
aI100
aI100
aI100
aa(lp82
I100
aI100
aI100
aI100
aa(lp83
I100
aI100
aI100
aI100
aa(lp84
I-100
aI-100
aF80.2
aI-100
aa(lp85
F72.40960000000001
aF66.034
aF82.0
aF67.24000000000001
aa(lp86
F82.0
aF88.48
aF82.0
aF82.0
aa(lp87
F82.0
aF71.9056
aI-100
aI-100
aa(lp88
I100
aI100
aI100
aI100
aa(lp89
I100
aI100
aI100
aI100
aa(lp90
I100
aI100
aI100
aI100
aa(lp91
I100
aI100
aI100
aI100
aa(lp92
I100
aI100
aI100
aI100
aa(lp93
I100
aI100
aI100
aI100
aa(lp94
I100
aI100
aI100
aI100
aa(lp95
F69.04
aI-100
aF82.0
aI-100
aa(lp96
F82.0
aI100
aI-100
aI-100
aa(lp97
I100
aI100
aI100
aI100
aa(lp98
I100
aI100
aI100
aI100
aa(lp99
I100
aI100
aI100
aI100
aa(lp100
I100
aI100
aI100
aI100
aa.