(lp0
(lp1
I-100
aI-100
aF52.092236800000016
aF55.49968
aa(lp2
I-100
aF64.30744000000001
aI-100
aF64.0792
aa(lp3
I100
aI100
aI100
aI100
aa(lp4
I100
aI100
aI100
aI100
aa(lp5
I-100
aI-100
aF28.983668912128007
aI-100
aa(lp6
I-100
aF25.45818522167296
aF30.489015607552005
aF33.56743784488194
aa(lp7
I-100
aF30.09456791819776
aF30.141499348288008
aF38.682807068180274
aa(lp8
I-100
aF31.205141433593564
aF22.958014062228095
aI-100
aa(lp9
I-100
aF21.018557020044437
aF25.44514518780599
aF18.68237965707086
aa(lp10
I-100
aF24.29650361343951
aI-100
aI-100
aa(lp11
F46.3936096
aI-100
aF44.63189056
aF53.80415200000001
aa(lp12
F52.074236800000016
aF51.6264328
aI-100
aF51.85222048000001
aa(lp13
I100
aI100
aI100
aI100
aa(lp14
I100
aI100
aI100
aI100
aa(lp15
I100
aI100
aI100
aI100
aa(lp16
F36.072596544256015
aI-100
aF29.654480702080008
aF40.976616089036405
aa(lp17
F31.5278687867392
aF32.80869934231339
aI-100
aI-100
aa(lp18
I100
aI100
aI100
aI100
aa(lp19
F20.897189115214776
aI-100
aI-100
aI-100
aa(lp20
I100
aI100
aI100
aI100
aa(lp21
F53.177248000000006
aI-100
aF55.3970368
aF50.33703807999999
aa(lp22
F64.05328
aF54.859600000000015
aF56.97568000000001
aF64.181584
aa(lp23
I-100
aF55.370080000000016
aF64.33840000000001
aF55.18720000000001
aa(lp24
I-100
aF55.49968
aI-100
aF55.55008000000001
aa(lp25
I100
aI100
aI100
aI100
aa(lp26
F34.499355968106215
aI-100
aI-100
aF35.298289773582276
aa(lp27
I100
aI100
aI100
aI100
aa(lp28
I100
aI100
aI100
aI100
aa(lp29
I100
aI100
aI100
aI100
aa(lp30
I100
aI100
aI100
aI100
aa(lp31
F55.31680000000001
aI-100
aF59.86016703999999
aI-100
aa(lp32
F67.24000000000001
aF67.74400000000001
aF69.04
aF74.8162
aa(lp33
F53.159248000000005
aF65.6344
aF54.059824000000006
aI-100
aa(lp34
F46.42809760000001
aF53.675848
aF45.11368
aF55.24108642
aa(lp35
I-100
aF52.743232000000006
aF52.9967656
aF46.14435280000001
aa(lp36
F40.55216286016
aF43.90637149
aI-100
aI-100
aa(lp37
I100
aI100
aI100
aI100
aa(lp38
I100
aI100
aI100
aI100
aa(lp39
I100
aI100
aI100
aI100
aa(lp40
I100
aI100
aI100
aI100
aa(lp41
I100
aI100
aI100
aI100
aa(lp42
F92.8
aI-100
aI-100
aF82.0
aa(lp43
I100
aI100
aI100
aI100
aa(lp44
F45.27978702400001
aI-100
aF45.26684128000001
aI-100
aa(lp45
F43.80469523200001
aF44.68212640000001
aI-100
aF52.634830600000015
aa(lp46
I100
aI100
aI100
aI100
aa(lp47
I100
aI100
aI100
aI100
aa(lp48
I100
aI100
aI100
aI100
aa(lp49
I100
aI100
aI100
aI100
aa(lp50
I100
aI100
aI100
aI100
aa(lp51
I-100
aI-100
aF61.282432
aF55.49968000000001
aa(lp52
F74.242576
aF65.20456000000001
aI-100
aF68.32000000000001
aa(lp53
I100
aI100
aI100
aI100
aa(lp54
I100
aI100
aI100
aI100
aa(lp55
F43.441329232000015
aI-100
aF64.161784
aF54.98920000000001
aa(lp56
I-100
aF69.04
aF67.040002
aI-100
aa(lp57
I-100
aF67.6000144
aF80.2
aF82.0
aa(lp58
I100
aI100
aI100
aI100
aa(lp59
I100
aI100
aI100
aI100
aa(lp60
I100
aI100
aI100
aI100
aa(lp61
F64.33840000000001
aI-100
aF60.605920000000005
aF56.4328
aa(lp62
F59.568641920000005
aF67.042
aF56.3032
aF65.76400000000001
aa(lp63
I-100
aF64.46800000000002
aF57.9088
aF55.11880000000001
aa(lp64
I-100
aF65.944
aF67.24000000000001
aI-100
aa(lp65
F67.24000000000001
aF56.43280000000001
aI-100
aF67.24000000000001
aa(lp66
I100
aI100
aI100
aI100
aa(lp67
F80.2
aI-100
aF80.2
aF69.04
aa(lp68
I100
aF69.04
aF92.8
aI-100
aa(lp69
I-100
aF80.2
aF82.0
aF69.04
aa(lp70
I-100
aF82.0
aI-100
aF82.0
aa(lp71
F56.61280000000001
aI-100
aF69.04
aI-100
aa(lp72
F65.8144
aF82.0
aF56.97568000000001
aI-100
aa(lp73
F55.18720000000001
aF65.76400000000001
aI-100
aI-100
aa(lp74
I100
aI100
aI100
aI100
aa(lp75
F82.0
aI-100
aF80.2
aF82.0
aa(lp76
I-100
aF82.0
aF82.0
aF82.0
aa(lp77
F82.0
aF69.04
aI-100
aF82.0
aa(lp78
I100
aI100
aI100
aI100
aa(lp79
F80.2
aI-100
aF82.0
aF82.0
aa(lp80
I100
aF82.0
aI-100
aI100
aa(lp81
I100
aI100
aI100
aI100
aa(lp82
I100
aI100
aI100
aI100
aa(lp83
I100
aI100
aI100
aI100
aa(lp84
I100
aI100
aI100
aI100
aa(lp85
I100
aI100
aI100
aI100
aa(lp86
F82.89999999999999
aI100
aF109.0
aI100
aa(lp87
F82.0
aF88.48
aI-100
aI-100
aa(lp88
I100
aI100
aI100
aI100
aa(lp89
I100
aI-100
aF82.0
aI-100
aa(lp90
F82.0
aF82.0
aI-100
aI100
aa(lp91
I100
aI100
aI100
aI100
aa(lp92
I100
aI100
aI100
aI100
aa(lp93
I100
aI100
aI100
aI100
aa(lp94
I100
aI100
aI100
aI100
aa(lp95
I100
aI100
aI100
aI100
aa(lp96
I100
aI100
aI100
aI100
aa(lp97
I100
aI100
aI100
aI100
aa(lp98
I100
aI100
aI100
aI100
aa(lp99
I100
aI100
aI100
aI100
aa(lp100
I100
aI100
aI100
aI100
aa.