(lp0
(lp1
I0
aI0
aF4.999999999999998
aF4.999999999999998
aa(lp2
I0
aF4.999999999999998
aI0
aF4.999999999999998
aa(lp3
I0
aI0
aI0
aI0
aa(lp4
I0
aI0
aI0
aI0
aa(lp5
I0
aI0
aF138.54663936000006
aI0
aa(lp6
I0
aF111.83731148800005
aF111.83731148800005
aF171.93329920000008
aa(lp7
I0
aF138.54663936000006
aF90.46984919040005
aF138.54663936000006
aa(lp8
I0
aF111.83731148800005
aF73.37587935232004
aI0
aa(lp9
I0
aF90.46984919040005
aF59.70070348185604
aF59.70070348185604
aa(lp10
I0
aF73.37587935232004
aI0
aI0
aa(lp11
F4.999999999999998
aI0
aF4.999999999999998
aF4.999999999999998
aa(lp12
F4.999999999999998
aF4.999999999999998
aI0
aF4.999999999999998
aa(lp13
I0
aI0
aI0
aI0
aa(lp14
I0
aI0
aI0
aI0
aa(lp15
I0
aI0
aI0
aI0
aa(lp16
F138.54663936000006
aI0
aF138.54663936000006
aF213.66662400000007
aa(lp17
F111.83731148800005
aF171.93329920000008
aI0
aI0
aa(lp18
I0
aI0
aI0
aI0
aa(lp19
F73.37587935232004
aI0
aI0
aI0
aa(lp20
I0
aI0
aI0
aI0
aa(lp21
F4.999999999999998
aI0
aF4.999999999999998
aF4.999999999999998
aa(lp22
F4.999999999999998
aF4.999999999999998
aF4.999999999999998
aF4.999999999999998
aa(lp23
I0
aF4.999999999999998
aF4.999999999999998
aF4.999999999999998
aa(lp24
I0
aF4.999999999999998
aI0
aF265.83328000000006
aa(lp25
I0
aI0
aI0
aI0
aa(lp26
F171.93329920000008
aI0
aI0
aF265.83328000000006
aa(lp27
I0
aI0
aI0
aI0
aa(lp28
I0
aI0
aI0
aI0
aa(lp29
I0
aI0
aI0
aI0
aa(lp30
I0
aI0
aI0
aI0
aa(lp31
F4.999999999999998
aI0
aF4.999999999999998
aI0
aa(lp32
F4.999999999999998
aF4.999999999999998
aF4.999999999999998
aF4.999999999999998
aa(lp33
F4.999999999999998
aF4.999999999999998
aF265.83328000000006
aI0
aa(lp34
F4.999999999999998
aF4.999999999999998
aF331.0416000000001
aF331.0416000000001
aa(lp35
I0
aF265.83328000000006
aF265.83328000000006
aF412.5520000000001
aa(lp36
F213.66662400000007
aF331.0416000000001
aI0
aI0
aa(lp37
I0
aI0
aI0
aI0
aa(lp38
I0
aI0
aI0
aI0
aa(lp39
I0
aI0
aI0
aI0
aa(lp40
I0
aI0
aI0
aI0
aa(lp41
I0
aI0
aI0
aI0
aa(lp42
F4.999999999999998
aI0
aI0
aF4.999999999999998
aa(lp43
I0
aI0
aI0
aI0
aa(lp44
F265.83328000000006
aI0
aF412.5520000000001
aI0
aa(lp45
F331.0416000000001
aF331.0416000000001
aI0
aF514.44
aa(lp46
I0
aI0
aI0
aI0
aa(lp47
I0
aI0
aI0
aI0
aa(lp48
I0
aI0
aI0
aI0
aa(lp49
I0
aI0
aI0
aI0
aa(lp50
I0
aI0
aI0
aI0
aa(lp51
I0
aI0
aI0
aI0
aa(lp52
F4.999999999999998
aI0
aI0
aI0
aa(lp53
I0
aI0
aI0
aI0
aa(lp54
I0
aI0
aI0
aI0
aa(lp55
F4.999999999999998
aI0
aF641.8000000000001
aF412.5520000000001
aa(lp56
I0
aF514.44
aF801.0
aI0
aa(lp57
I0
aF641.8000000000001
aF1000.0
aF641.8000000000001
aa(lp58
I0
aI0
aI0
aI0
aa(lp59
I0
aI0
aI0
aI0
aa(lp60
I0
aI0
aI0
aI0
aa(lp61
I0
aI0
aI0
aI0
aa(lp62
F4.999999999999998
aF1.0
aF4.656402616320001
aI0
aa(lp63
I0
aI0
aF4.570503270400001
aF4.328911360000001
aa(lp64
I0
aF4.4631290880000005
aF3.6892800000000006
aI0
aa(lp65
F514.44
aF3.9514240000000007
aI0
aF331.0416000000001
aa(lp66
I0
aI0
aI0
aI0
aa(lp67
F801.0
aI0
aF1.0
aF2.4400000000000004
aa(lp68
F1000.0
aF641.8000000000001
aF1.0
aI0
aa(lp69
I0
aI0
aI0
aI0
aa(lp70
I0
aI0
aI0
aI0
aa(lp71
I0
aI0
aF3.6892800000000006
aI0
aa(lp72
I0
aF1.0
aF4.328911360000001
aI0
aa(lp73
F2.9520000000000004
aF4.161139200000001
aI0
aI0
aa(lp74
I0
aI0
aI0
aI0
aa(lp75
F412.5520000000001
aI0
aI0
aF3.9514240000000007
aa(lp76
I0
aF1.0
aF514.44
aF331.0416000000001
aa(lp77
F641.8000000000001
aF412.5520000000001
aI0
aI0
aa(lp78
I0
aI0
aI0
aI0
aa(lp79
I0
aI0
aI0
aI0
aa(lp80
I0
aI0
aI0
aI0
aa(lp81
I0
aI0
aI0
aI0
aa(lp82
I0
aI0
aI0
aI0
aa(lp83
I0
aI0
aI0
aI0
aa(lp84
I0
aI0
aF1.8
aI0
aa(lp85
F1.0
aF1.0
aF3.6892800000000006
aF1.0
aa(lp86
F412.5520000000001
aF1.8
aF3.9514240000000007
aF2.4400000000000004
aa(lp87
I0
aF3.6892800000000006
aI0
aI0
aa(lp88
I0
aI0
aI0
aI0
aa(lp89
I0
aI0
aI0
aI0
aa(lp90
I0
aI0
aI0
aI0
aa(lp91
I0
aI0
aI0
aI0
aa(lp92
I0
aI0
aI0
aI0
aa(lp93
I0
aI0
aI0
aI0
aa(lp94
I0
aI0
aI0
aI0
aa(lp95
I0
aI0
aI0
aI0
aa(lp96
F2.9520000000000004
aF1.0
aI0
aI0
aa(lp97
I0
aI0
aI0
aI0
aa(lp98
I0
aI0
aI0
aI0
aa(lp99
I0
aI0
aI0
aI0
aa(lp100
I0
aI0
aI0
aI0
aa.